; Function Attrs: mustprogress nofree norecurse nosync nounwind willreturn memory(argmem: write) uwtable
define hidden void @_ZN6cineon14IndustryHeader5ResetEv(ptr nocapture noundef nonnull writeonly align 4 dereferenceable(1024) %this) local_unnamed_addr #6 align 2 {
entry:
  store i8 -1, ptr %this, align 4
  %filmType = getelementptr inbounds i8, ptr %this, i64 1
  store i8 -1, ptr %filmType, align 1
  %perfsOffset = getelementptr inbounds i8, ptr %this, i64 2
  store i8 -1, ptr %perfsOffset, align 2
  %prefix = getelementptr inbounds i8, ptr %this, i64 4
  store i32 -1, ptr %prefix, align 4
  %count = getelementptr inbounds i8, ptr %this, i64 8
  store i32 -1, ptr %count, align 4
  %format = getelementptr inbounds i8, ptr %this, i64 12
  tail call void @llvm.memset.p0.i64(ptr noundef nonnull align 4 dereferenceable(32) %format, i8 0, i64 32, i1 false)
  %framePosition = getelementptr inbounds i8, ptr %this, i64 44
  store i32 -1, ptr %framePosition, align 4
  %frameRate = getelementptr inbounds i8, ptr %this, i64 48
  store float 0x7FF0000000000000, ptr %frameRate, align 4
  %frameId = getelementptr inbounds i8, ptr %this, i64 52
  tail call void @llvm.memset.p0.i64(ptr noundef nonnull align 4 dereferenceable(972) %frameId, i8 0, i64 972, i1 false)
  ret void
}